; ModuleID = '2/600.c'
source_filename = "2/600.c"
target datalayout = "e-m:e-p270:32:32-p271:32:32-p272:64:64-i64:64-f80:128-n8:16:32:64-S128"
target triple = "x86_64-pc-linux-gnu"

%struct.book = type { i32, [27 x i8] }

@.str = private unnamed_addr constant [3 x i8] c"%d\00", align 1
@.str.1 = private unnamed_addr constant [6 x i8] c"%d %s\00", align 1
@.str.2 = private unnamed_addr constant [4 x i8] c"%c\0A\00", align 1
@.str.3 = private unnamed_addr constant [4 x i8] c"%d\0A\00", align 1

; Function Attrs: noinline nounwind uwtable
define dso_local i32 @main() #0 {
  %1 = alloca i32, align 4
  %2 = alloca i32, align 4
  %3 = alloca [1000 x i32], align 16
  %4 = alloca [26 x i32], align 16
  %5 = alloca i32, align 4
  %6 = alloca i32, align 4
  %7 = alloca i32, align 4
  %8 = alloca i32, align 4
  %9 = alloca [1000 x %struct.book], align 16
  store i32 0, i32* %1, align 4
  %10 = bitcast [26 x i32]* %4 to i8*
  call void @llvm.memset.p0i8.i64(i8* align 16 %10, i8 0, i64 104, i1 false)
  %11 = call i32 (i8*, ...) @__isoc99_scanf(i8* getelementptr inbounds ([3 x i8], [3 x i8]* @.str, i64 0, i64 0), i32* %2)
  store i32 0, i32* %6, align 4
  br label %12

12:                                               ; preds = %37, %0
  %13 = load i32, i32* %6, align 4
  %14 = load i32, i32* %2, align 4
  %15 = icmp slt i32 %13, %14
  br i1 %15, label %16, label %40

16:                                               ; preds = %12
  %17 = load i32, i32* %6, align 4
  %18 = sext i32 %17 to i64
  %19 = getelementptr inbounds [1000 x %struct.book], [1000 x %struct.book]* %9, i64 0, i64 %18
  %20 = getelementptr inbounds %struct.book, %struct.book* %19, i32 0, i32 0
  %21 = load i32, i32* %6, align 4
  %22 = sext i32 %21 to i64
  %23 = getelementptr inbounds [1000 x %struct.book], [1000 x %struct.book]* %9, i64 0, i64 %22
  %24 = getelementptr inbounds %struct.book, %struct.book* %23, i32 0, i32 1
  %25 = getelementptr inbounds [27 x i8], [27 x i8]* %24, i64 0, i64 0
  %26 = call i32 (i8*, ...) @__isoc99_scanf(i8* getelementptr inbounds ([6 x i8], [6 x i8]* @.str.1, i64 0, i64 0), i32* %20, i8* %25)
  %27 = load i32, i32* %6, align 4
  %28 = sext i32 %27 to i64
  %29 = getelementptr inbounds [1000 x %struct.book], [1000 x %struct.book]* %9, i64 0, i64 %28
  %30 = getelementptr inbounds %struct.book, %struct.book* %29, i32 0, i32 1
  %31 = getelementptr inbounds [27 x i8], [27 x i8]* %30, i64 0, i64 0
  %32 = call i64 @strlen(i8* %31) #4
  %33 = trunc i64 %32 to i32
  %34 = load i32, i32* %6, align 4
  %35 = sext i32 %34 to i64
  %36 = getelementptr inbounds [1000 x i32], [1000 x i32]* %3, i64 0, i64 %35
  store i32 %33, i32* %36, align 4
  br label %37

37:                                               ; preds = %16
  %38 = load i32, i32* %6, align 4
  %39 = add nsw i32 %38, 1
  store i32 %39, i32* %6, align 4
  br label %12

40:                                               ; preds = %12
  store i32 0, i32* %6, align 4
  br label %41

41:                                               ; preds = %72, %40
  %42 = load i32, i32* %6, align 4
  %43 = load i32, i32* %2, align 4
  %44 = icmp slt i32 %42, %43
  br i1 %44, label %45, label %75

45:                                               ; preds = %41
  store i32 0, i32* %7, align 4
  br label %46

46:                                               ; preds = %68, %45
  %47 = load i32, i32* %7, align 4
  %48 = load i32, i32* %6, align 4
  %49 = sext i32 %48 to i64
  %50 = getelementptr inbounds [1000 x i32], [1000 x i32]* %3, i64 0, i64 %49
  %51 = load i32, i32* %50, align 4
  %52 = icmp slt i32 %47, %51
  br i1 %52, label %53, label %71

53:                                               ; preds = %46
  %54 = load i32, i32* %6, align 4
  %55 = sext i32 %54 to i64
  %56 = getelementptr inbounds [1000 x %struct.book], [1000 x %struct.book]* %9, i64 0, i64 %55
  %57 = getelementptr inbounds %struct.book, %struct.book* %56, i32 0, i32 1
  %58 = load i32, i32* %7, align 4
  %59 = sext i32 %58 to i64
  %60 = getelementptr inbounds [27 x i8], [27 x i8]* %57, i64 0, i64 %59
  %61 = load i8, i8* %60, align 1
  %62 = sext i8 %61 to i32
  %63 = sub nsw i32 %62, 65
  %64 = sext i32 %63 to i64
  %65 = getelementptr inbounds [26 x i32], [26 x i32]* %4, i64 0, i64 %64
  %66 = load i32, i32* %65, align 4
  %67 = add nsw i32 %66, 1
  store i32 %67, i32* %65, align 4
  br label %68

68:                                               ; preds = %53
  %69 = load i32, i32* %7, align 4
  %70 = add nsw i32 %69, 1
  store i32 %70, i32* %7, align 4
  br label %46

71:                                               ; preds = %46
  br label %72

72:                                               ; preds = %71
  %73 = load i32, i32* %6, align 4
  %74 = add nsw i32 %73, 1
  store i32 %74, i32* %6, align 4
  br label %41

75:                                               ; preds = %41
  %76 = getelementptr inbounds [26 x i32], [26 x i32]* %4, i64 0, i64 0
  %77 = load i32, i32* %76, align 16
  store i32 %77, i32* %5, align 4
  store i32 0, i32* %8, align 4
  store i32 1, i32* %6, align 4
  br label %78

78:                                               ; preds = %95, %75
  %79 = load i32, i32* %6, align 4
  %80 = icmp slt i32 %79, 26
  br i1 %80, label %81, label %98

81:                                               ; preds = %78
  %82 = load i32, i32* %6, align 4
  %83 = sext i32 %82 to i64
  %84 = getelementptr inbounds [26 x i32], [26 x i32]* %4, i64 0, i64 %83
  %85 = load i32, i32* %84, align 4
  %86 = load i32, i32* %5, align 4
  %87 = icmp sgt i32 %85, %86
  br i1 %87, label %88, label %94

88:                                               ; preds = %81
  %89 = load i32, i32* %6, align 4
  %90 = sext i32 %89 to i64
  %91 = getelementptr inbounds [26 x i32], [26 x i32]* %4, i64 0, i64 %90
  %92 = load i32, i32* %91, align 4
  store i32 %92, i32* %5, align 4
  %93 = load i32, i32* %6, align 4
  store i32 %93, i32* %8, align 4
  br label %94

94:                                               ; preds = %88, %81
  br label %95

95:                                               ; preds = %94
  %96 = load i32, i32* %6, align 4
  %97 = add nsw i32 %96, 1
  store i32 %97, i32* %6, align 4
  br label %78

98:                                               ; preds = %78
  %99 = load i32, i32* %8, align 4
  %100 = add nsw i32 %99, 65
  %101 = call i32 (i8*, ...) @printf(i8* getelementptr inbounds ([4 x i8], [4 x i8]* @.str.2, i64 0, i64 0), i32 %100)
  %102 = load i32, i32* %5, align 4
  %103 = call i32 (i8*, ...) @printf(i8* getelementptr inbounds ([4 x i8], [4 x i8]* @.str.3, i64 0, i64 0), i32 %102)
  store i32 0, i32* %6, align 4
  br label %104

104:                                              ; preds = %141, %98
  %105 = load i32, i32* %6, align 4
  %106 = load i32, i32* %2, align 4
  %107 = icmp slt i32 %105, %106
  br i1 %107, label %108, label %144

108:                                              ; preds = %104
  store i32 0, i32* %7, align 4
  br label %109

109:                                              ; preds = %137, %108
  %110 = load i32, i32* %7, align 4
  %111 = load i32, i32* %6, align 4
  %112 = sext i32 %111 to i64
  %113 = getelementptr inbounds [1000 x i32], [1000 x i32]* %3, i64 0, i64 %112
  %114 = load i32, i32* %113, align 4
  %115 = icmp slt i32 %110, %114
  br i1 %115, label %116, label %140

116:                                              ; preds = %109
  %117 = load i32, i32* %6, align 4
  %118 = sext i32 %117 to i64
  %119 = getelementptr inbounds [1000 x %struct.book], [1000 x %struct.book]* %9, i64 0, i64 %118
  %120 = getelementptr inbounds %struct.book, %struct.book* %119, i32 0, i32 1
  %121 = load i32, i32* %7, align 4
  %122 = sext i32 %121 to i64
  %123 = getelementptr inbounds [27 x i8], [27 x i8]* %120, i64 0, i64 %122
  %124 = load i8, i8* %123, align 1
  %125 = sext i8 %124 to i32
  %126 = load i32, i32* %8, align 4
  %127 = add nsw i32 65, %126
  %128 = icmp eq i32 %125, %127
  br i1 %128, label %129, label %136

129:                                              ; preds = %116
  %130 = load i32, i32* %6, align 4
  %131 = sext i32 %130 to i64
  %132 = getelementptr inbounds [1000 x %struct.book], [1000 x %struct.book]* %9, i64 0, i64 %131
  %133 = getelementptr inbounds %struct.book, %struct.book* %132, i32 0, i32 0
  %134 = load i32, i32* %133, align 16
  %135 = call i32 (i8*, ...) @printf(i8* getelementptr inbounds ([4 x i8], [4 x i8]* @.str.3, i64 0, i64 0), i32 %134)
  br label %140

136:                                              ; preds = %116
  br label %137

137:                                              ; preds = %136
  %138 = load i32, i32* %7, align 4
  %139 = add nsw i32 %138, 1
  store i32 %139, i32* %7, align 4
  br label %109

140:                                              ; preds = %129, %109
  br label %141

141:                                              ; preds = %140
  %142 = load i32, i32* %6, align 4
  %143 = add nsw i32 %142, 1
  store i32 %143, i32* %6, align 4
  br label %104

144:                                              ; preds = %104
  ret i32 0
}

; Function Attrs: argmemonly nounwind willreturn
declare void @llvm.memset.p0i8.i64(i8* nocapture writeonly, i8, i64, i1 immarg) #1

declare dso_local i32 @__isoc99_scanf(i8*, ...) #2

; Function Attrs: nounwind readonly
declare dso_local i64 @strlen(i8*) #3

declare dso_local i32 @printf(i8*, ...) #2


!llvm.module.flags = !{!0}
!llvm.ident = !{!1}

!0 = !{i32 1, !"wchar_size", i32 4}
!1 = !{!"clang version 10.0.0-4ubuntu1 "}
